target datalayout = "e-m:e-p270:32:32-p271:32:32-p272:64:64-i64:64-i128:128-f80:128-n8:16:32:64-S128"
target triple = "x86_64-pc-linux-gnu"

%struct.DdManager = type { %struct.DdNode, ptr, ptr, ptr, ptr, ptr, ptr, ptr, i32, i32, double, double, double, i32, i32, i32, i32, i32, i32, ptr, ptr, %struct.DdSubtable, i32, i32, i32, i32, i32, i32, i32, double, i32, i32, i32, ptr, i64, double, i32, ptr, ptr, ptr, ptr, ptr, ptr, ptr, i32, ptr, ptr, ptr, ptr, ptr, ptr, i32, i32, i32, double, i32, i32, i32, i32, double, double, i32, i32, i32, i32, i32, i32, i32, i32, i32, ptr, ptr, i32, i32, i32, i32, i32, i32, ptr, ptr, ptr, ptr, ptr, ptr, ptr, ptr, i32, i64, i64, i64, i32, i64, i64, double, double, double, double, double, double, i32, ptr, ptr, i64 }
%struct.DdNode = type { i32, i32, ptr, %union.anon, i64 }
%union.anon = type { %struct.DdChildren }
%struct.DdChildren = type { ptr, ptr }
%struct.DdSubtable = type { ptr, i32, i32, i32, i32, i32, i32, i32, i32, i32, i32, i32 }

@.str.3 = private unnamed_addr constant [42 x i8] c"Something wrong, st__table insert failed\0A\00", align 1

; Function Attrs: nounwind uwtable
define internal void @StoreNodes(ptr noundef %0, ptr noundef %1, ptr noundef %2) #0 {
  %4 = alloca ptr, align 8
  %5 = alloca ptr, align 8
  %6 = alloca ptr, align 8
  %7 = alloca ptr, align 8
  %8 = alloca ptr, align 8
  %9 = alloca ptr, align 8
  store ptr %0, ptr %4, align 8
  store ptr %1, ptr %5, align 8
  store ptr %2, ptr %6, align 8
  %10 = load ptr, ptr %5, align 8
  %11 = ptrtoint ptr %10 to i64
  %12 = and i64 %11, -2
  %13 = inttoptr i64 %12 to ptr
  %14 = getelementptr inbounds %struct.DdNode, ptr %13, i32 0, i32 0
  %15 = load i32, ptr %14, align 8
  %16 = icmp eq i32 %15, 2147483647
  br i1 %16, label %17, label %18

17:                                               ; preds = %3
  br label %66

18:                                               ; preds = %3
  %19 = load ptr, ptr %6, align 8
  %20 = ptrtoint ptr %19 to i64
  %21 = and i64 %20, -2
  %22 = inttoptr i64 %21 to ptr
  store ptr %22, ptr %7, align 8
  %23 = load ptr, ptr %4, align 8
  %24 = load ptr, ptr %7, align 8
  %25 = call i32 @st__lookup(ptr noundef %23, ptr noundef %24, ptr noundef null)
  %26 = icmp ne i32 %25, 0
  br i1 %26, label %27, label %28

27:                                               ; preds = %18
  br label %66

28:                                               ; preds = %18
  %29 = load ptr, ptr %7, align 8
  %30 = ptrtoint ptr %29 to i64
  %31 = and i64 %30, -2
  %32 = inttoptr i64 %31 to ptr
  %33 = getelementptr inbounds %struct.DdNode, ptr %32, i32 0, i32 1
  %34 = load i32, ptr %33, align 4
  %35 = add i32 %34, 1
  store i32 %35, ptr %33, align 4
  %36 = load ptr, ptr %4, align 8
  %37 = load ptr, ptr %7, align 8
  %38 = call i32 @st__insert(ptr noundef %36, ptr noundef %37, ptr noundef null)
  %39 = icmp eq i32 %38, -10000
  br i1 %39, label %40, label %45

40:                                               ; preds = %28
  %41 = load ptr, ptr %5, align 8
  %42 = getelementptr inbounds %struct.DdManager, ptr %41, i32 0, i32 85
  %43 = load ptr, ptr %42, align 8
  %44 = call i32 (ptr, ptr, ...) @fprintf(ptr noundef %43, ptr noundef @.str.3) #4
  br label %45

45:                                               ; preds = %40, %28
  %46 = load ptr, ptr %7, align 8
  %47 = ptrtoint ptr %46 to i64
  %48 = and i64 %47, -2
  %49 = inttoptr i64 %48 to ptr
  %50 = getelementptr inbounds %struct.DdNode, ptr %49, i32 0, i32 3
  %51 = getelementptr inbounds %struct.DdChildren, ptr %50, i32 0, i32 0
  %52 = load ptr, ptr %51, align 8
  store ptr %52, ptr %8, align 8
  %53 = load ptr, ptr %7, align 8
  %54 = ptrtoint ptr %53 to i64
  %55 = and i64 %54, -2
  %56 = inttoptr i64 %55 to ptr
  %57 = getelementptr inbounds %struct.DdNode, ptr %56, i32 0, i32 3
  %58 = getelementptr inbounds %struct.DdChildren, ptr %57, i32 0, i32 1
  %59 = load ptr, ptr %58, align 8
  store ptr %59, ptr %9, align 8
  %60 = load ptr, ptr %4, align 8
  %61 = load ptr, ptr %5, align 8
  %62 = load ptr, ptr %8, align 8
  call void @StoreNodes(ptr noundef %60, ptr noundef %61, ptr noundef %62)
  %63 = load ptr, ptr %4, align 8
  %64 = load ptr, ptr %5, align 8
  %65 = load ptr, ptr %9, align 8
  call void @StoreNodes(ptr noundef %63, ptr noundef %64, ptr noundef %65)
  br label %66

66:                                               ; preds = %45, %27, %17
  ret void
}