; Function Attrs: nounwind uwtable
define internal fastcc void @StoreNodes(ptr noundef %0, ptr noundef %1, ptr noundef %2) unnamed_addr #0 {
  %4 = ptrtoint ptr %1 to i64
  %5 = and i64 %4, -2
  %6 = inttoptr i64 %5 to ptr
  %7 = load i32, ptr %6, align 8
  %8 = icmp eq i32 %7, 2147483647
  br i1 %8, label %._crit_edge, label %.lr.ph

.lr.ph:                                           ; preds = %3
  %9 = getelementptr inbounds nuw i8, ptr %1, i64 616
  br label %10

10:                                               ; preds = %.lr.ph, %tailrecurse
  %.tr1718 = phi ptr [ %2, %.lr.ph ], [ %27, %tailrecurse ]
  %11 = ptrtoint ptr %.tr1718 to i64
  %12 = and i64 %11, -2
  %13 = inttoptr i64 %12 to ptr
  %14 = tail call i32 @st__lookup(ptr noundef %0, ptr noundef %13, ptr noundef null) #6
  %.not = icmp eq i32 %14, 0
  br i1 %.not, label %15, label %._crit_edge

15:                                               ; preds = %10
  %16 = getelementptr inbounds nuw i8, ptr %13, i64 4
  %17 = load i32, ptr %16, align 4
  %18 = add i32 %17, 1
  store i32 %18, ptr %16, align 4
  %19 = tail call i32 @st__insert(ptr noundef %0, ptr noundef %13, ptr noundef null) #6
  %20 = icmp eq i32 %19, -10000
  br i1 %20, label %21, label %tailrecurse

21:                                               ; preds = %15
  %22 = load ptr, ptr %9, align 8
  %23 = tail call i64 @fwrite(ptr nonnull @.str.3, i64 41, i64 1, ptr %22)
  br label %tailrecurse

tailrecurse:                                      ; preds = %21, %15
  %24 = getelementptr inbounds nuw i8, ptr %13, i64 16
  %25 = load ptr, ptr %24, align 8
  %26 = getelementptr inbounds nuw i8, ptr %13, i64 24
  %27 = load ptr, ptr %26, align 8
  tail call fastcc void @StoreNodes(ptr noundef %0, ptr noundef %1, ptr noundef %25)
  %28 = load i32, ptr %6, align 8
  %29 = icmp eq i32 %28, 2147483647
  br i1 %29, label %._crit_edge, label %10

._crit_edge:                                      ; preds = %tailrecurse, %10, %3
  ret void
}